; Function Attrs: mustprogress uwtable
define hidden noundef zeroext i1 @_ZN3sat4ddfw7do_flipEv(ptr noundef nonnull align 8 dereferenceable(434) %0) local_unnamed_addr #4 align 2 {
  %2 = alloca double, align 8
  call void @llvm.lifetime.start.p0(i64 8, ptr nonnull %2) #27
  %3 = call noundef i32 @_ZN3sat4ddfw8pick_varERd(ptr noundef nonnull align 8 dereferenceable(434) %0, ptr noundef nonnull align 8 dereferenceable(8) %2)
  %4 = load double, ptr %2, align 8, !tbaa !103
  %5 = icmp eq i32 %3, 2147483647
  br i1 %5, label %_ZN3sat4ddfw10apply_flipEjd.exit, label %6

6:                                                ; preds = %1
  %7 = fcmp ogt double %4, 0.000000e+00
  br i1 %7, label %19, label %8

8:                                                ; preds = %6
  %9 = fcmp oeq double %4, 0.000000e+00
  br i1 %9, label %10, label %_ZN3sat4ddfw10apply_flipEjd.exit

10:                                               ; preds = %8
  %11 = getelementptr inbounds nuw i8, ptr %0, i64 216
  %12 = load i32, ptr %11, align 8, !tbaa !87
  %13 = mul i32 %12, 214013
  %14 = add i32 %13, 2531011
  store i32 %14, ptr %11, align 8, !tbaa !87
  %15 = lshr i32 %14, 16
  %16 = trunc nuw i32 %15 to i16
  %.lhs.trunc.i = and i16 %16, 32767
  %17 = urem i16 %.lhs.trunc.i, 100
  %.zext.i = zext nneg i16 %17 to i32
  %18 = load i32, ptr %0, align 8, !tbaa !104
  %.not.i = icmp ult i32 %18, %.zext.i
  br i1 %.not.i, label %_ZN3sat4ddfw10apply_flipEjd.exit, label %19

19:                                               ; preds = %10, %6
  tail call void @_ZN3sat4ddfw4flipEj(ptr noundef nonnull align 8 dereferenceable(434) %0, i32 noundef %3)
  %20 = getelementptr inbounds nuw i8, ptr %0, i64 168
  %21 = load i32, ptr %20, align 8, !tbaa !97
  %22 = getelementptr inbounds nuw i8, ptr %0, i64 292
  %23 = load i32, ptr %22, align 4, !tbaa !52
  %.not7.i = icmp ugt i32 %21, %23
  br i1 %.not7.i, label %_ZN3sat4ddfw10apply_flipEjd.exit, label %24

24:                                               ; preds = %19
  tail call void @_ZN3sat4ddfw16save_best_valuesEv(ptr noundef nonnull align 8 dereferenceable(434) %0)
  br label %_ZN3sat4ddfw10apply_flipEjd.exit

_ZN3sat4ddfw10apply_flipEjd.exit:                 ; preds = %1, %8, %10, %19, %24
  %.0.i = phi i1 [ false, %1 ], [ true, %24 ], [ true, %19 ], [ false, %10 ], [ false, %8 ]
  call void @llvm.lifetime.end.p0(i64 8, ptr nonnull %2) #27
  ret i1 %.0.i
}